; Function Attrs: mustprogress uwtable
define dso_local void @_ZN4base9ListValue6AppendESt10unique_ptrINS_5ValueESt14default_deleteIS2_EE(ptr noundef nonnull align 8 dereferenceable(40) %this, ptr noundef %in_value) local_unnamed_addr #3 align 2 {
entry:
  %_M_finish.i.i = getelementptr inbounds i8, ptr %this, i64 24
  %0 = load ptr, ptr %_M_finish.i.i, align 8
  %_M_end_of_storage.i.i = getelementptr inbounds i8, ptr %this, i64 32
  %1 = load ptr, ptr %_M_end_of_storage.i.i, align 8
  %cmp.not.i.i = icmp eq ptr %0, %1
  br i1 %cmp.not.i.i, label %if.else.i.i, label %if.then.i.i

if.then.i.i:                                      ; preds = %entry
  %2 = load i64, ptr %in_value, align 8
  store i64 %2, ptr %0, align 8
  store ptr null, ptr %in_value, align 8
  %3 = load ptr, ptr %_M_finish.i.i, align 8
  %incdec.ptr.i.i = getelementptr inbounds i8, ptr %3, i64 8
  store ptr %incdec.ptr.i.i, ptr %_M_finish.i.i, align 8
  br label %_ZNSt6vectorISt10unique_ptrIN4base5ValueESt14default_deleteIS2_EESaIS5_EE9push_backEOS5_.exit

if.else.i.i:                                      ; preds = %entry
  %list_ = getelementptr inbounds i8, ptr %this, i64 16
  tail call void @_ZNSt6vectorISt10unique_ptrIN4base5ValueESt14default_deleteIS2_EESaIS5_EE17_M_realloc_insertIJS5_EEEvN9__gnu_cxx17__normal_iteratorIPS5_S7_EEDpOT_(ptr noundef nonnull align 8 dereferenceable(24) %list_, ptr %0, ptr noundef nonnull align 8 dereferenceable(8) %in_value)
  br label %_ZNSt6vectorISt10unique_ptrIN4base5ValueESt14default_deleteIS2_EESaIS5_EE9push_backEOS5_.exit

_ZNSt6vectorISt10unique_ptrIN4base5ValueESt14default_deleteIS2_EESaIS5_EE9push_backEOS5_.exit: ; preds = %if.then.i.i, %if.else.i.i
  ret void
}